; Function Attrs: mustprogress null_pointer_is_valid sspstrong uwtable
define internal void @"_ZN9QtPrivate18QFunctorSlotObjectIZN19WiresharkMainWindow27connectTelephonyMenuActionsEvE3$_8Li0ENS_4ListIJEEEvE4implEiPNS_15QSlotObjectBaseEP7QObjectPPvPb"(i32 noundef %0, ptr noundef %1, ptr readnone captures(none) %2, ptr readnone captures(none) %3, ptr readnone captures(none) %4) #0 align 2 personality ptr @__gxx_personality_v0 {
  switch i32 %0, label %15 [
    i32 0, label %6
    i32 1, label %9
  ]

6:                                                ; preds = %5
  %7 = icmp eq ptr %1, null
  br i1 %7, label %15, label %8

8:                                                ; preds = %6
  tail call void @_ZdlPvm(ptr noundef nonnull %1, i64 noundef 24) #26
  br label %15

9:                                                ; preds = %5
  %10 = getelementptr inbounds nuw i8, ptr %1, i64 16
  %.val = load ptr, ptr %10, align 8
  %11 = tail call noalias noundef dereferenceable_or_null(256) ptr @_Znwm(i64 noundef 256) #28
  %12 = getelementptr inbounds nuw i8, ptr %.val, i64 40
  invoke void @_ZN15StatsTreeDialogC1ER7QWidgetR11CaptureFilePKc(ptr noundef align 8 dereferenceable_or_null(256) %11, ptr noundef align 8 dereferenceable(40) dereferenceable_or_null(560) %.val, ptr noundef nonnull align 8 dereferenceable(48) %12, ptr noundef nonnull @.str.143)
          to label %"_ZN9QtPrivate7FunctorIZN19WiresharkMainWindow27connectTelephonyMenuActionsEvE3$_8Li0EE4callINS_4ListIJEEEvEEvRS2_PvPS8_.exit" unwind label %13

13:                                               ; preds = %9
  %14 = landingpad { ptr, i32 }
          cleanup
  tail call void @_ZdlPvm(ptr noundef %11, i64 noundef 256) #26
  resume { ptr, i32 } %14

"_ZN9QtPrivate7FunctorIZN19WiresharkMainWindow27connectTelephonyMenuActionsEvE3$_8Li0EE4callINS_4ListIJEEEvEEvRS2_PvPS8_.exit": ; preds = %9
  tail call void @_ZN7QWidget4showEv(ptr noundef align 8 dereferenceable_or_null(40) %11)
  br label %15

15:                                               ; preds = %6, %8, %"_ZN9QtPrivate7FunctorIZN19WiresharkMainWindow27connectTelephonyMenuActionsEvE3$_8Li0EE4callINS_4ListIJEEEvEEvRS2_PvPS8_.exit", %5
  ret void
}